target datalayout = "e-m:e-p270:32:32-p271:32:32-p272:64:64-i64:64-i128:128-f80:128-n8:16:32:64-S128"
target triple = "x86_64-pc-linux-gnu"

@.str = private unnamed_addr constant [23 x i8] c"Enter PEM pass phrase:\00", align 1
@.str.1 = private unnamed_addr constant [32 x i8] c"../openssl/crypto/pem/pem_lib.c\00", align 1
@__func__.PEM_def_callback = private unnamed_addr constant [17 x i8] c"PEM_def_callback\00", align 1

; Function Attrs: nounwind uwtable
define i32 @PEM_def_callback(ptr noundef %0, i32 noundef %1, i32 noundef %2, ptr noundef %3) #0 {
  %5 = alloca i32, align 4
  %6 = alloca ptr, align 8
  %7 = alloca i32, align 4
  %8 = alloca i32, align 4
  %9 = alloca ptr, align 8
  %10 = alloca i32, align 4
  %11 = alloca i32, align 4
  %12 = alloca ptr, align 8
  %13 = alloca i32, align 4
  store ptr %0, ptr %6, align 8, !tbaa !3
  store i32 %1, ptr %7, align 4, !tbaa !8
  store i32 %2, ptr %8, align 4, !tbaa !8
  store ptr %3, ptr %9, align 8, !tbaa !10
  call void @llvm.lifetime.start.p0(i64 4, ptr %10) #8
  call void @llvm.lifetime.start.p0(i64 4, ptr %11) #8
  call void @llvm.lifetime.start.p0(i64 8, ptr %12) #8
  %14 = load ptr, ptr %9, align 8, !tbaa !10
  %15 = icmp ne ptr %14, null
  br i1 %15, label %16, label %34

16:                                               ; preds = %4
  %17 = load ptr, ptr %9, align 8, !tbaa !10
  %18 = call i64 @strlen(ptr noundef %17) #9
  %19 = trunc i64 %18 to i32
  store i32 %19, ptr %10, align 4, !tbaa !8
  %20 = load i32, ptr %10, align 4, !tbaa !8
  %21 = load i32, ptr %7, align 4, !tbaa !8
  %22 = icmp sgt i32 %20, %21
  br i1 %22, label %23, label %25

23:                                               ; preds = %16
  %24 = load i32, ptr %7, align 4, !tbaa !8
  br label %27

25:                                               ; preds = %16
  %26 = load i32, ptr %10, align 4, !tbaa !8
  br label %27

27:                                               ; preds = %25, %23
  %28 = phi i32 [ %24, %23 ], [ %26, %25 ]
  store i32 %28, ptr %10, align 4, !tbaa !8
  %29 = load ptr, ptr %6, align 8, !tbaa !3
  %30 = load ptr, ptr %9, align 8, !tbaa !10
  %31 = load i32, ptr %10, align 4, !tbaa !8
  %32 = sext i32 %31 to i64
  call void @llvm.memcpy.p0.p0.i64(ptr align 1 %29, ptr align 1 %30, i64 %32, i1 false)
  %33 = load i32, ptr %10, align 4, !tbaa !8
  store i32 %33, ptr %5, align 4
  store i32 1, ptr %13, align 4
  br label %59

34:                                               ; preds = %4
  %35 = call ptr @EVP_get_pw_prompt()
  store ptr %35, ptr %12, align 8, !tbaa !3
  %36 = load ptr, ptr %12, align 8, !tbaa !3
  %37 = icmp eq ptr %36, null
  br i1 %37, label %38, label %39

38:                                               ; preds = %34
  store ptr @.str, ptr %12, align 8, !tbaa !3
  br label %39

39:                                               ; preds = %38, %34
  %40 = load i32, ptr %8, align 4, !tbaa !8
  %41 = icmp ne i32 %40, 0
  %42 = select i1 %41, i32 4, i32 0
  store i32 %42, ptr %11, align 4, !tbaa !8
  %43 = load ptr, ptr %6, align 8, !tbaa !3
  %44 = load i32, ptr %11, align 4, !tbaa !8
  %45 = load i32, ptr %7, align 4, !tbaa !8
  %46 = load ptr, ptr %12, align 8, !tbaa !3
  %47 = load i32, ptr %8, align 4, !tbaa !8
  %48 = call i32 @EVP_read_pw_string_min(ptr noundef %43, i32 noundef %44, i32 noundef %45, ptr noundef %46, i32 noundef %47)
  store i32 %48, ptr %10, align 4, !tbaa !8
  %49 = load i32, ptr %10, align 4, !tbaa !8
  %50 = icmp ne i32 %49, 0
  br i1 %50, label %51, label %55

51:                                               ; preds = %39
  call void @ERR_new()
  call void @ERR_set_debug(ptr noundef @.str.1, i32 noundef 62, ptr noundef @__func__.PEM_def_callback)
  call void (i32, i32, ptr, ...) @ERR_set_error(i32 noundef 9, i32 noundef 109, ptr noundef null)
  %52 = load ptr, ptr %6, align 8, !tbaa !3
  %53 = load i32, ptr %7, align 4, !tbaa !8
  %54 = zext i32 %53 to i64
  call void @llvm.memset.p0.i64(ptr align 1 %52, i8 0, i64 %54, i1 false)
  store i32 -1, ptr %5, align 4
  store i32 1, ptr %13, align 4
  br label %59

55:                                               ; preds = %39
  %56 = load ptr, ptr %6, align 8, !tbaa !3
  %57 = call i64 @strlen(ptr noundef %56) #9
  %58 = trunc i64 %57 to i32
  store i32 %58, ptr %5, align 4
  store i32 1, ptr %13, align 4
  br label %59

59:                                               ; preds = %55, %51, %27
  call void @llvm.lifetime.end.p0(i64 8, ptr %12) #8
  call void @llvm.lifetime.end.p0(i64 4, ptr %11) #8
  call void @llvm.lifetime.end.p0(i64 4, ptr %10) #8
  %60 = load i32, ptr %5, align 4
  ret i32 %60
}