; Function Attrs: nounwind uwtable
define i32 @PEM_def_callback(ptr noundef %0, i32 noundef %1, i32 noundef %2, ptr noundef readonly captures(address_is_null) %3) local_unnamed_addr #0 {
  %.not = icmp eq ptr %3, null
  br i1 %.not, label %10, label %5

5:                                                ; preds = %4
  %6 = tail call i64 @strlen(ptr noundef nonnull dereferenceable(1) %3) #9
  %7 = trunc i64 %6 to i32
  %8 = tail call i32 @llvm.smin.i32(i32 %1, i32 %7)
  %9 = sext i32 %8 to i64
  tail call void @llvm.memcpy.p0.p0.i64(ptr align 1 %0, ptr nonnull align 1 %3, i64 %9, i1 false)
  br label %20

10:                                               ; preds = %4
  %11 = tail call ptr @EVP_get_pw_prompt() #10
  %12 = icmp eq ptr %11, null
  %spec.store.select = select i1 %12, ptr @.str, ptr %11
  %.not22 = icmp eq i32 %2, 0
  %13 = select i1 %.not22, i32 0, i32 4
  %14 = tail call i32 @EVP_read_pw_string_min(ptr noundef %0, i32 noundef %13, i32 noundef %1, ptr noundef nonnull %spec.store.select, i32 noundef %2) #10
  %.not23 = icmp eq i32 %14, 0
  br i1 %.not23, label %17, label %15

15:                                               ; preds = %10
  tail call void @ERR_new() #10
  tail call void @ERR_set_debug(ptr noundef nonnull @.str.1, i32 noundef 62, ptr noundef nonnull @__func__.PEM_def_callback) #10
  tail call void (i32, i32, ptr, ...) @ERR_set_error(i32 noundef 9, i32 noundef 109, ptr noundef null) #10
  %16 = zext i32 %1 to i64
  tail call void @llvm.memset.p0.i64(ptr align 1 %0, i8 0, i64 %16, i1 false)
  br label %20

17:                                               ; preds = %10
  %18 = tail call i64 @strlen(ptr noundef nonnull dereferenceable(1) %0) #9
  %19 = trunc i64 %18 to i32
  br label %20

20:                                               ; preds = %17, %15, %5
  %.0 = phi i32 [ %8, %5 ], [ -1, %15 ], [ %19, %17 ]
  ret i32 %.0
}